; Function Attrs: mustprogress nofree norecurse nosync nounwind willreturn memory(none) uwtable
define noundef i64 @_ZN6casadi9fd_offsetENS_6FdModeE(i32 noundef %0) local_unnamed_addr #4 {
  %2 = icmp ult i32 %0, 4
  br i1 %2, label %switch.lookup, label %4

switch.lookup:                                    ; preds = %1
  %3 = zext nneg i32 %0 to i64
  %switch.gep = getelementptr inbounds [4 x i64], ptr @switch.table._ZN6casadi9fd_offsetENS_6FdModeE, i64 0, i64 %3
  %switch.load = load i64, ptr %switch.gep, align 8
  br label %4

4:                                                ; preds = %1, %switch.lookup
  %.0 = phi i64 [ %switch.load, %switch.lookup ], [ -1, %1 ]
  ret i64 %.0
}